target datalayout = "e-m:e-p270:32:32-p271:32:32-p272:64:64-i64:64-i128:128-f80:128-n8:16:32:64-S128"
target triple = "x86_64-pc-linux-gnu"

%struct.pmix_hash_type_methods_t = type { ptr, ptr }
%struct.pmix_hash_table_t = type { %struct.pmix_object_t, ptr, ptr, i64, i64, i64, i32, i32, i32, i32, ptr }
%struct.pmix_object_t = type { %union.pthread_mutex_t, ptr, i32, %struct.pmix_tma }
%union.pthread_mutex_t = type { %struct.__pthread_mutex_s }
%struct.__pthread_mutex_s = type { i32, i32, i32, i32, i32, i16, i16, %struct.__pthread_internal_list }
%struct.__pthread_internal_list = type { ptr, ptr }
%struct.pmix_tma = type { ptr, ptr, ptr, ptr, ptr, ptr, ptr, ptr }
%struct.pmix_hash_element_t = type { i32, %union.anon, ptr, ptr }
%union.anon = type { %struct.anon }
%struct.anon = type { ptr, i64 }

@pmix_hash_type_methods_ptr = internal constant %struct.pmix_hash_type_methods_t { ptr @pmix_hash_destruct_elt_ptr, ptr @pmix_hash_hash_elt_ptr }, align 8

; Function Attrs: nounwind uwtable
define internal i64 @pmix_hash_hash_key_ptr(ptr noundef %0, i64 noundef %1) #0 {
  %3 = alloca ptr, align 8
  %4 = alloca i64, align 8
  %5 = alloca i64, align 8
  %6 = alloca ptr, align 8
  %7 = alloca i64, align 8
  store ptr %0, ptr %3, align 8, !tbaa !42
  store i64 %1, ptr %4, align 8, !tbaa !28
  call void @llvm.lifetime.start.p0(i64 8, ptr %5) #9
  call void @llvm.lifetime.start.p0(i64 8, ptr %6) #9
  call void @llvm.lifetime.start.p0(i64 8, ptr %7) #9
  store i64 0, ptr %5, align 8, !tbaa !28
  %8 = load ptr, ptr %3, align 8, !tbaa !42
  store ptr %8, ptr %6, align 8, !tbaa !48
  store i64 0, ptr %7, align 8, !tbaa !28
  br label %9

9:                                                ; preds = %21, %2
  %10 = load i64, ptr %7, align 8, !tbaa !28
  %11 = load i64, ptr %4, align 8, !tbaa !28
  %12 = icmp ult i64 %10, %11
  br i1 %12, label %13, label %24

13:                                               ; preds = %9
  %14 = load i64, ptr %5, align 8, !tbaa !28
  %15 = mul i64 31, %14
  %16 = load ptr, ptr %6, align 8, !tbaa !48
  %17 = getelementptr inbounds nuw i8, ptr %16, i32 1
  store ptr %17, ptr %6, align 8, !tbaa !48
  %18 = load i8, ptr %16, align 1, !tbaa !43
  %19 = zext i8 %18 to i64
  %20 = add i64 %15, %19
  store i64 %20, ptr %5, align 8, !tbaa !28
  br label %21

21:                                               ; preds = %13
  %22 = load i64, ptr %7, align 8, !tbaa !28
  %23 = add i64 %22, 1
  store i64 %23, ptr %7, align 8, !tbaa !28
  br label %9, !llvm.loop !49

24:                                               ; preds = %9
  %25 = load i64, ptr %5, align 8, !tbaa !28
  call void @llvm.lifetime.end.p0(i64 8, ptr %7) #9
  call void @llvm.lifetime.end.p0(i64 8, ptr %6) #9
  call void @llvm.lifetime.end.p0(i64 8, ptr %5) #9
  ret i64 %25
}

; Function Attrs: nounwind uwtable
define i32 @pmix_hash_table_get_value_ptr(ptr noundef %0, ptr noundef %1, i64 noundef %2, ptr noundef %3) #0 {
  %5 = alloca i32, align 4
  %6 = alloca ptr, align 8
  %7 = alloca ptr, align 8
  %8 = alloca i64, align 8
  %9 = alloca ptr, align 8
  %10 = alloca i64, align 8
  %11 = alloca i64, align 8
  %12 = alloca ptr, align 8
  %13 = alloca i32, align 4
  store ptr %0, ptr %6, align 8, !tbaa !3
  store ptr %1, ptr %7, align 8, !tbaa !42
  store i64 %2, ptr %8, align 8, !tbaa !28
  store ptr %3, ptr %9, align 8, !tbaa !42
  call void @llvm.lifetime.start.p0(i64 8, ptr %10) #9
  call void @llvm.lifetime.start.p0(i64 8, ptr %11) #9
  %14 = load ptr, ptr %6, align 8, !tbaa !3
  %15 = getelementptr inbounds nuw %struct.pmix_hash_table_t, ptr %14, i32 0, i32 3
  %16 = load i64, ptr %15, align 8, !tbaa !20
  store i64 %16, ptr %11, align 8, !tbaa !28
  call void @llvm.lifetime.start.p0(i64 8, ptr %12) #9
  %17 = load ptr, ptr %6, align 8, !tbaa !3
  %18 = getelementptr inbounds nuw %struct.pmix_hash_table_t, ptr %17, i32 0, i32 10
  store ptr @pmix_hash_type_methods_ptr, ptr %18, align 8, !tbaa !25
  %19 = load ptr, ptr %7, align 8, !tbaa !42
  %20 = load i64, ptr %8, align 8, !tbaa !28
  %21 = call i64 @pmix_hash_hash_key_ptr(ptr noundef %19, i64 noundef %20)
  %22 = load i64, ptr %11, align 8, !tbaa !28
  %23 = urem i64 %21, %22
  store i64 %23, ptr %10, align 8, !tbaa !28
  br label %24

24:                                               ; preds = %64, %4
  %25 = load i64, ptr %10, align 8, !tbaa !28
  %26 = load i64, ptr %11, align 8, !tbaa !28
  %27 = icmp eq i64 %25, %26
  br i1 %27, label %28, label %29

28:                                               ; preds = %24
  store i64 0, ptr %10, align 8, !tbaa !28
  br label %29

29:                                               ; preds = %28, %24
  %30 = load ptr, ptr %6, align 8, !tbaa !3
  %31 = getelementptr inbounds nuw %struct.pmix_hash_table_t, ptr %30, i32 0, i32 2
  %32 = load ptr, ptr %31, align 8, !tbaa !8
  %33 = load i64, ptr %10, align 8, !tbaa !28
  %34 = getelementptr inbounds nuw %struct.pmix_hash_element_t, ptr %32, i64 %33
  store ptr %34, ptr %12, align 8, !tbaa !34
  %35 = load ptr, ptr %12, align 8, !tbaa !34
  %36 = getelementptr inbounds nuw %struct.pmix_hash_element_t, ptr %35, i32 0, i32 0
  %37 = load i32, ptr %36, align 8, !tbaa !35
  %38 = icmp ne i32 %37, 0
  br i1 %38, label %40, label %39

39:                                               ; preds = %29
  store i32 -46, ptr %5, align 4
  store i32 1, ptr %13, align 4
  br label %67

40:                                               ; preds = %29
  %41 = load ptr, ptr %12, align 8, !tbaa !34
  %42 = getelementptr inbounds nuw %struct.pmix_hash_element_t, ptr %41, i32 0, i32 1
  %43 = getelementptr inbounds nuw %struct.anon, ptr %42, i32 0, i32 1
  %44 = load i64, ptr %43, align 8, !tbaa !43
  %45 = load i64, ptr %8, align 8, !tbaa !28
  %46 = icmp eq i64 %44, %45
  br i1 %46, label %47, label %61

47:                                               ; preds = %40
  %48 = load ptr, ptr %12, align 8, !tbaa !34
  %49 = getelementptr inbounds nuw %struct.pmix_hash_element_t, ptr %48, i32 0, i32 1
  %50 = getelementptr inbounds nuw %struct.anon, ptr %49, i32 0, i32 0
  %51 = load ptr, ptr %50, align 8, !tbaa !43
  %52 = load ptr, ptr %7, align 8, !tbaa !42
  %53 = load i64, ptr %8, align 8, !tbaa !28
  %54 = call i32 @memcmp(ptr noundef %51, ptr noundef %52, i64 noundef %53) #11
  %55 = icmp eq i32 0, %54
  br i1 %55, label %56, label %61

56:                                               ; preds = %47
  %57 = load ptr, ptr %12, align 8, !tbaa !34
  %58 = getelementptr inbounds nuw %struct.pmix_hash_element_t, ptr %57, i32 0, i32 3
  %59 = load ptr, ptr %58, align 8, !tbaa !39
  %60 = load ptr, ptr %9, align 8, !tbaa !42
  store ptr %59, ptr %60, align 8, !tbaa !42
  store i32 0, ptr %5, align 4
  store i32 1, ptr %13, align 4
  br label %67

61:                                               ; preds = %47, %40
  br label %62

62:                                               ; preds = %61
  br label %63

63:                                               ; preds = %62
  br label %64

64:                                               ; preds = %63
  %65 = load i64, ptr %10, align 8, !tbaa !28
  %66 = add i64 %65, 1
  store i64 %66, ptr %10, align 8, !tbaa !28
  br label %24

67:                                               ; preds = %56, %39
  call void @llvm.lifetime.end.p0(i64 8, ptr %12) #9
  call void @llvm.lifetime.end.p0(i64 8, ptr %11) #9
  call void @llvm.lifetime.end.p0(i64 8, ptr %10) #9
  %68 = load i32, ptr %5, align 4
  ret i32 %68
}