; Function Attrs: nofree nounwind memory(read, argmem: readwrite, inaccessiblemem: none) uwtable
define range(i32 -46, 1) i32 @pmix_hash_table_get_value_ptr(ptr noundef captures(none) initializes((176, 184)) %0, ptr noundef readonly captures(none) %1, i64 noundef %2, ptr noundef writeonly captures(none) %3) local_unnamed_addr #3 {
  %5 = getelementptr inbounds nuw i8, ptr %0, i64 136
  %6 = load i64, ptr %5, align 8, !tbaa !11
  %7 = getelementptr inbounds nuw i8, ptr %0, i64 176
  store ptr @pmix_hash_type_methods_ptr, ptr %7, align 8, !tbaa !21
  %.not.i = icmp eq i64 %2, 0
  br i1 %.not.i, label %pmix_hash_hash_key_ptr.exit, label %.lr.ph.i

.lr.ph.i:                                         ; preds = %4, %.lr.ph.i
  %.010.i = phi i64 [ %13, %.lr.ph.i ], [ 0, %4 ]
  %.069.i = phi ptr [ %9, %.lr.ph.i ], [ %1, %4 ]
  %.078.i = phi i64 [ %12, %.lr.ph.i ], [ 0, %4 ]
  %8 = mul i64 %.078.i, 31
  %9 = getelementptr inbounds nuw i8, ptr %.069.i, i64 1
  %10 = load i8, ptr %.069.i, align 1, !tbaa !36
  %11 = zext i8 %10 to i64
  %12 = add i64 %8, %11
  %13 = add nuw i64 %.010.i, 1
  %exitcond.not.i = icmp eq i64 %13, %2
  br i1 %exitcond.not.i, label %pmix_hash_hash_key_ptr.exit, label %.lr.ph.i, !llvm.loop !44

pmix_hash_hash_key_ptr.exit:                      ; preds = %.lr.ph.i, %4
  %.07.lcssa.i = phi i64 [ 0, %4 ], [ %12, %.lr.ph.i ]
  %14 = urem i64 %.07.lcssa.i, %6
  %15 = getelementptr inbounds nuw i8, ptr %0, i64 128
  %16 = load ptr, ptr %15, align 8, !tbaa !17
  %17 = getelementptr inbounds nuw %struct.pmix_hash_element_t, ptr %16, i64 %14
  %18 = load i32, ptr %17, align 8, !tbaa !18
  %.not21 = icmp eq i32 %18, 0
  br i1 %.not21, label %.loopexit, label %.lr.ph

.lr.ph:                                           ; preds = %pmix_hash_hash_key_ptr.exit, %30
  %19 = phi ptr [ %33, %30 ], [ %17, %pmix_hash_hash_key_ptr.exit ]
  %spec.store.select22 = phi i64 [ %spec.store.select, %30 ], [ %14, %pmix_hash_hash_key_ptr.exit ]
  %20 = getelementptr inbounds nuw i8, ptr %19, i64 16
  %21 = load i64, ptr %20, align 8, !tbaa !36
  %22 = icmp eq i64 %21, %2
  br i1 %22, label %23, label %30

23:                                               ; preds = %.lr.ph
  %24 = getelementptr inbounds nuw i8, ptr %19, i64 8
  %25 = load ptr, ptr %24, align 8, !tbaa !36
  %bcmp = tail call i32 @bcmp(ptr %25, ptr %1, i64 %2)
  %26 = icmp eq i32 %bcmp, 0
  br i1 %26, label %27, label %30

27:                                               ; preds = %23
  %28 = getelementptr inbounds nuw i8, ptr %19, i64 32
  %29 = load ptr, ptr %28, align 8, !tbaa !24
  store ptr %29, ptr %3, align 8, !tbaa !37
  br label %.loopexit

30:                                               ; preds = %.lr.ph, %23
  %31 = add i64 %spec.store.select22, 1
  %32 = icmp eq i64 %31, %6
  %spec.store.select = select i1 %32, i64 0, i64 %31
  %33 = getelementptr inbounds nuw %struct.pmix_hash_element_t, ptr %16, i64 %spec.store.select
  %34 = load i32, ptr %33, align 8, !tbaa !18
  %.not = icmp eq i32 %34, 0
  br i1 %.not, label %.loopexit, label %.lr.ph

.loopexit:                                        ; preds = %30, %pmix_hash_hash_key_ptr.exit, %27
  %.0 = phi i32 [ 0, %27 ], [ -46, %pmix_hash_hash_key_ptr.exit ], [ -46, %30 ]
  ret i32 %.0
}